; Function Attrs: nounwind uwtable
define i32 @duckdb_je_ctl_byname(ptr noundef %0, ptr noundef %1, ptr noundef %2, ptr noundef %3, ptr noundef %4, i64 noundef %5) local_unnamed_addr #0 {
  %7 = alloca i64, align 8
  %8 = alloca [7 x i64], align 16
  %9 = alloca ptr, align 8
  call void @llvm.lifetime.start.p0(i64 8, ptr nonnull %7) #14
  call void @llvm.lifetime.start.p0(i64 56, ptr nonnull %8) #14
  call void @llvm.lifetime.start.p0(i64 8, ptr nonnull %9) #14
  %.b12 = load i1, ptr @ctl_initialized, align 1
  br i1 %.b12, label %12, label %10

10:                                               ; preds = %6
  %11 = tail call fastcc zeroext i1 @ctl_init(ptr noundef %0)
  br i1 %11, label %22, label %12

12:                                               ; preds = %10, %6
  store i64 7, ptr %7, align 8, !tbaa !3
  %13 = call fastcc i32 @ctl_lookup(ptr noundef %0, ptr noundef nonnull @super_root_node, ptr noundef %1, ptr noundef nonnull %9, ptr noundef nonnull %8, ptr noundef nonnull %7)
  %.not = icmp eq i32 %13, 0
  br i1 %.not, label %14, label %22

14:                                               ; preds = %12
  %15 = load ptr, ptr %9, align 8, !tbaa !7
  %.not13 = icmp eq ptr %15, null
  br i1 %.not13, label %22, label %16

16:                                               ; preds = %14
  %17 = getelementptr inbounds nuw i8, ptr %15, i64 32
  %18 = load ptr, ptr %17, align 8, !tbaa !10
  %.not14 = icmp eq ptr %18, null
  br i1 %.not14, label %22, label %19

19:                                               ; preds = %16
  %20 = load i64, ptr %7, align 8, !tbaa !3
  %21 = call i32 %18(ptr noundef %0, ptr noundef nonnull %8, i64 noundef %20, ptr noundef %2, ptr noundef %3, ptr noundef %4, i64 noundef %5) #14
  br label %22

22:                                               ; preds = %14, %16, %10, %19, %12
  %.0 = phi i32 [ %13, %12 ], [ %21, %19 ], [ 11, %10 ], [ 2, %16 ], [ 2, %14 ]
  call void @llvm.lifetime.end.p0(i64 8, ptr nonnull %9) #14
  call void @llvm.lifetime.end.p0(i64 56, ptr nonnull %8) #14
  call void @llvm.lifetime.end.p0(i64 8, ptr nonnull %7) #14
  ret i32 %.0
}